; Function Attrs: mustprogress nofree norecurse nosync nounwind willreturn memory(argmem: readwrite) uwtable
define noundef nonnull align 4 dereferenceable(64) ptr @_ZN32pxrInternal_v0_24__pxrReserved__10GfMatrix4f12SetTranslateERKNS_7GfVec3fE(ptr noundef nonnull returned writeonly align 4 dereferenceable(64) initializes((0, 64)) %0, ptr noundef nonnull readonly align 4 captures(none) dereferenceable(12) %1) local_unnamed_addr #2 align 2 {
  store float 1.000000e+00, ptr %0, align 4
  %3 = getelementptr inbounds nuw i8, ptr %0, i64 4
  %4 = getelementptr inbounds nuw i8, ptr %0, i64 20
  tail call void @llvm.memset.p0.i64(ptr noundef nonnull align 4 dereferenceable(16) %3, i8 0, i64 16, i1 false)
  store float 1.000000e+00, ptr %4, align 4
  %5 = getelementptr inbounds nuw i8, ptr %0, i64 24
  %6 = getelementptr inbounds nuw i8, ptr %0, i64 40
  tail call void @llvm.memset.p0.i64(ptr noundef nonnull align 4 dereferenceable(16) %5, i8 0, i64 16, i1 false)
  store float 1.000000e+00, ptr %6, align 4
  %7 = getelementptr inbounds nuw i8, ptr %0, i64 44
  store float 0.000000e+00, ptr %7, align 4
  %8 = load float, ptr %1, align 4
  %9 = getelementptr inbounds nuw i8, ptr %0, i64 48
  store float %8, ptr %9, align 4
  %10 = getelementptr inbounds nuw i8, ptr %1, i64 4
  %11 = load float, ptr %10, align 4
  %12 = getelementptr inbounds nuw i8, ptr %0, i64 52
  store float %11, ptr %12, align 4
  %13 = getelementptr inbounds nuw i8, ptr %1, i64 8
  %14 = load float, ptr %13, align 4
  %15 = getelementptr inbounds nuw i8, ptr %0, i64 56
  store float %14, ptr %15, align 4
  %16 = getelementptr inbounds nuw i8, ptr %0, i64 60
  store float 1.000000e+00, ptr %16, align 4
  ret ptr %0
}